target datalayout = "e-m:e-p270:32:32-p271:32:32-p272:64:64-i64:64-i128:128-f80:128-n8:16:32:64-S128"
target triple = "x86_64-pc-linux-gnu"

%struct._image_pos = type { float, float, float, float }
%struct._image_box = type { i32, i32, i32, i32, i32, i32, i32, i32, i32, i32, %struct._image_pos, %struct._image_pos, %struct._image_pos, ptr }
%struct.dt_images_box = type { i32, i32, i32, [20 x %struct._image_box], float, float, float, float, %struct.dt_screen_pos }
%struct.dt_screen_pos = type { %struct._image_pos, %struct._image_pos, i32 }

; Function Attrs: nounwind uwtable
define void @dt_printing_setup_image(ptr noundef %0, i32 noundef %1, i32 noundef %2, i32 noundef %3, i32 noundef %4, i32 noundef %5) #0 {
  %7 = alloca ptr, align 8
  %8 = alloca i32, align 4
  %9 = alloca i32, align 4
  %10 = alloca i32, align 4
  %11 = alloca i32, align 4
  %12 = alloca i32, align 4
  %13 = alloca ptr, align 8
  %14 = alloca %struct._image_pos, align 4
  %15 = alloca float, align 4
  %16 = alloca float, align 4
  store ptr %0, ptr %7, align 8, !tbaa !33
  store i32 %1, ptr %8, align 4, !tbaa !35
  store i32 %2, ptr %9, align 4, !tbaa !35
  store i32 %3, ptr %10, align 4, !tbaa !35
  store i32 %4, ptr %11, align 4, !tbaa !35
  store i32 %5, ptr %12, align 4, !tbaa !35
  call void @llvm.lifetime.start.p0(i64 8, ptr %13) #5
  %17 = load ptr, ptr %7, align 8, !tbaa !33
  %18 = getelementptr inbounds nuw %struct.dt_images_box, ptr %17, i32 0, i32 3
  %19 = load i32, ptr %8, align 4, !tbaa !35
  %20 = sext i32 %19 to i64
  %21 = getelementptr inbounds [20 x %struct._image_box], ptr %18, i64 0, i64 %20
  store ptr %21, ptr %13, align 8, !tbaa !17
  %22 = load ptr, ptr %13, align 8, !tbaa !17
  %23 = getelementptr inbounds nuw %struct._image_box, ptr %22, i32 0, i32 0
  %24 = load i32, ptr %23, align 8, !tbaa !19
  %25 = load i32, ptr %9, align 4, !tbaa !35
  %26 = icmp ne i32 %24, %25
  br i1 %26, label %27, label %34

27:                                               ; preds = %6
  %28 = load i32, ptr %9, align 4, !tbaa !35
  %29 = load ptr, ptr %13, align 8, !tbaa !17
  %30 = getelementptr inbounds nuw %struct._image_box, ptr %29, i32 0, i32 7
  %31 = load ptr, ptr %13, align 8, !tbaa !17
  %32 = getelementptr inbounds nuw %struct._image_box, ptr %31, i32 0, i32 8
  %33 = call i32 @dt_image_get_final_size(i32 noundef %28, ptr noundef %30, ptr noundef %32)
  br label %34

34:                                               ; preds = %27, %6
  %35 = load i32, ptr %9, align 4, !tbaa !35
  %36 = load ptr, ptr %13, align 8, !tbaa !17
  %37 = getelementptr inbounds nuw %struct._image_box, ptr %36, i32 0, i32 0
  store i32 %35, ptr %37, align 8, !tbaa !19
  %38 = load i32, ptr %10, align 4, !tbaa !35
  %39 = load ptr, ptr %13, align 8, !tbaa !17
  %40 = getelementptr inbounds nuw %struct._image_box, ptr %39, i32 0, i32 3
  store i32 %38, ptr %40, align 4, !tbaa !26
  %41 = load i32, ptr %11, align 4, !tbaa !35
  %42 = load ptr, ptr %13, align 8, !tbaa !17
  %43 = getelementptr inbounds nuw %struct._image_box, ptr %42, i32 0, i32 4
  store i32 %41, ptr %43, align 8, !tbaa !25
  %44 = load i32, ptr %12, align 4, !tbaa !35
  %45 = load ptr, ptr %13, align 8, !tbaa !17
  %46 = getelementptr inbounds nuw %struct._image_box, ptr %45, i32 0, i32 9
  store i32 %44, ptr %46, align 4, !tbaa !31
  %47 = load ptr, ptr %13, align 8, !tbaa !17
  %48 = getelementptr inbounds nuw %struct._image_box, ptr %47, i32 0, i32 10
  %49 = getelementptr inbounds nuw %struct._image_pos, ptr %48, i32 0, i32 0
  %50 = load float, ptr %49, align 8, !tbaa !97
  %51 = load ptr, ptr %7, align 8, !tbaa !33
  %52 = getelementptr inbounds nuw %struct.dt_images_box, ptr %51, i32 0, i32 4
  %53 = load float, ptr %52, align 8, !tbaa !41
  %54 = fmul reassoc nsz arcp contract afn float %50, %53
  %55 = load ptr, ptr %13, align 8, !tbaa !17
  %56 = getelementptr inbounds nuw %struct._image_box, ptr %55, i32 0, i32 12
  %57 = getelementptr inbounds nuw %struct._image_pos, ptr %56, i32 0, i32 0
  store float %54, ptr %57, align 8, !tbaa !101
  %58 = load ptr, ptr %13, align 8, !tbaa !17
  %59 = getelementptr inbounds nuw %struct._image_box, ptr %58, i32 0, i32 10
  %60 = getelementptr inbounds nuw %struct._image_pos, ptr %59, i32 0, i32 1
  %61 = load float, ptr %60, align 4, !tbaa !98
  %62 = load ptr, ptr %7, align 8, !tbaa !33
  %63 = getelementptr inbounds nuw %struct.dt_images_box, ptr %62, i32 0, i32 5
  %64 = load float, ptr %63, align 4, !tbaa !40
  %65 = fmul reassoc nsz arcp contract afn float %61, %64
  %66 = load ptr, ptr %13, align 8, !tbaa !17
  %67 = getelementptr inbounds nuw %struct._image_box, ptr %66, i32 0, i32 12
  %68 = getelementptr inbounds nuw %struct._image_pos, ptr %67, i32 0, i32 1
  store float %65, ptr %68, align 4, !tbaa !102
  %69 = load ptr, ptr %13, align 8, !tbaa !17
  %70 = getelementptr inbounds nuw %struct._image_box, ptr %69, i32 0, i32 10
  %71 = getelementptr inbounds nuw %struct._image_pos, ptr %70, i32 0, i32 2
  %72 = load float, ptr %71, align 8, !tbaa !99
  %73 = load ptr, ptr %7, align 8, !tbaa !33
  %74 = getelementptr inbounds nuw %struct.dt_images_box, ptr %73, i32 0, i32 4
  %75 = load float, ptr %74, align 8, !tbaa !41
  %76 = fmul reassoc nsz arcp contract afn float %72, %75
  %77 = load ptr, ptr %13, align 8, !tbaa !17
  %78 = getelementptr inbounds nuw %struct._image_box, ptr %77, i32 0, i32 12
  %79 = getelementptr inbounds nuw %struct._image_pos, ptr %78, i32 0, i32 2
  store float %76, ptr %79, align 8, !tbaa !103
  %80 = load ptr, ptr %13, align 8, !tbaa !17
  %81 = getelementptr inbounds nuw %struct._image_box, ptr %80, i32 0, i32 10
  %82 = getelementptr inbounds nuw %struct._image_pos, ptr %81, i32 0, i32 3
  %83 = load float, ptr %82, align 4, !tbaa !100
  %84 = load ptr, ptr %7, align 8, !tbaa !33
  %85 = getelementptr inbounds nuw %struct.dt_images_box, ptr %84, i32 0, i32 5
  %86 = load float, ptr %85, align 4, !tbaa !40
  %87 = fmul reassoc nsz arcp contract afn float %83, %86
  %88 = load ptr, ptr %13, align 8, !tbaa !17
  %89 = getelementptr inbounds nuw %struct._image_box, ptr %88, i32 0, i32 12
  %90 = getelementptr inbounds nuw %struct._image_pos, ptr %89, i32 0, i32 3
  store float %87, ptr %90, align 4, !tbaa !104
  call void @llvm.lifetime.start.p0(i64 16, ptr %14) #5
  %91 = load ptr, ptr %13, align 8, !tbaa !17
  %92 = getelementptr inbounds nuw %struct._image_box, ptr %91, i32 0, i32 12
  %93 = load ptr, ptr %13, align 8, !tbaa !17
  %94 = getelementptr inbounds nuw %struct._image_box, ptr %93, i32 0, i32 9
  %95 = load i32, ptr %94, align 4, !tbaa !31
  %96 = load ptr, ptr %13, align 8, !tbaa !17
  %97 = getelementptr inbounds nuw %struct._image_box, ptr %96, i32 0, i32 3
  %98 = load i32, ptr %97, align 4, !tbaa !26
  %99 = load ptr, ptr %13, align 8, !tbaa !17
  %100 = getelementptr inbounds nuw %struct._image_box, ptr %99, i32 0, i32 4
  %101 = load i32, ptr %100, align 8, !tbaa !25
  call void @_align_pos(ptr noundef %92, i32 noundef %95, i32 noundef %98, i32 noundef %101, ptr noundef %14)
  %102 = getelementptr inbounds nuw %struct._image_pos, ptr %14, i32 0, i32 0
  %103 = load float, ptr %102, align 4, !tbaa !16
  %104 = load ptr, ptr %13, align 8, !tbaa !17
  %105 = getelementptr inbounds nuw %struct._image_box, ptr %104, i32 0, i32 12
  %106 = getelementptr inbounds nuw %struct._image_pos, ptr %105, i32 0, i32 0
  store float %103, ptr %106, align 8, !tbaa !101
  %107 = load ptr, ptr %7, align 8, !tbaa !33
  %108 = getelementptr inbounds nuw %struct.dt_images_box, ptr %107, i32 0, i32 5
  %109 = load float, ptr %108, align 4, !tbaa !40
  %110 = getelementptr inbounds nuw %struct._image_pos, ptr %14, i32 0, i32 1
  %111 = load float, ptr %110, align 4, !tbaa !15
  %112 = getelementptr inbounds nuw %struct._image_pos, ptr %14, i32 0, i32 3
  %113 = load float, ptr %112, align 4, !tbaa !11
  %114 = fadd reassoc nsz arcp contract afn float %111, %113
  %115 = fsub reassoc nsz arcp contract afn float %109, %114
  %116 = load ptr, ptr %13, align 8, !tbaa !17
  %117 = getelementptr inbounds nuw %struct._image_box, ptr %116, i32 0, i32 12
  %118 = getelementptr inbounds nuw %struct._image_pos, ptr %117, i32 0, i32 1
  store float %115, ptr %118, align 4, !tbaa !102
  %119 = getelementptr inbounds nuw %struct._image_pos, ptr %14, i32 0, i32 2
  %120 = load float, ptr %119, align 4, !tbaa !14
  %121 = load ptr, ptr %13, align 8, !tbaa !17
  %122 = getelementptr inbounds nuw %struct._image_box, ptr %121, i32 0, i32 12
  %123 = getelementptr inbounds nuw %struct._image_pos, ptr %122, i32 0, i32 2
  store float %120, ptr %123, align 8, !tbaa !103
  %124 = getelementptr inbounds nuw %struct._image_pos, ptr %14, i32 0, i32 3
  %125 = load float, ptr %124, align 4, !tbaa !11
  %126 = load ptr, ptr %13, align 8, !tbaa !17
  %127 = getelementptr inbounds nuw %struct._image_box, ptr %126, i32 0, i32 12
  %128 = getelementptr inbounds nuw %struct._image_pos, ptr %127, i32 0, i32 3
  store float %125, ptr %128, align 4, !tbaa !104
  %129 = load ptr, ptr %13, align 8, !tbaa !17
  %130 = getelementptr inbounds nuw %struct._image_box, ptr %129, i32 0, i32 7
  %131 = load i32, ptr %130, align 4, !tbaa !30
  %132 = load ptr, ptr %13, align 8, !tbaa !17
  %133 = getelementptr inbounds nuw %struct._image_box, ptr %132, i32 0, i32 5
  store i32 %131, ptr %133, align 4, !tbaa !28
  %134 = load ptr, ptr %13, align 8, !tbaa !17
  %135 = getelementptr inbounds nuw %struct._image_box, ptr %134, i32 0, i32 8
  %136 = load i32, ptr %135, align 8, !tbaa !29
  %137 = load ptr, ptr %13, align 8, !tbaa !17
  %138 = getelementptr inbounds nuw %struct._image_box, ptr %137, i32 0, i32 6
  store i32 %136, ptr %138, align 8, !tbaa !27
  %139 = load ptr, ptr %13, align 8, !tbaa !17
  %140 = getelementptr inbounds nuw %struct._image_box, ptr %139, i32 0, i32 5
  %141 = load i32, ptr %140, align 4, !tbaa !28
  %142 = sitofp i32 %141 to float
  %143 = load ptr, ptr %13, align 8, !tbaa !17
  %144 = getelementptr inbounds nuw %struct._image_box, ptr %143, i32 0, i32 11
  %145 = getelementptr inbounds nuw %struct._image_pos, ptr %144, i32 0, i32 2
  %146 = load float, ptr %145, align 8, !tbaa !47
  %147 = fcmp reassoc nsz arcp contract afn ogt float %142, %146
  br i1 %147, label %148, label %175

148:                                              ; preds = %34
  call void @llvm.lifetime.start.p0(i64 4, ptr %15) #5
  %149 = load ptr, ptr %13, align 8, !tbaa !17
  %150 = getelementptr inbounds nuw %struct._image_box, ptr %149, i32 0, i32 11
  %151 = getelementptr inbounds nuw %struct._image_pos, ptr %150, i32 0, i32 2
  %152 = load float, ptr %151, align 8, !tbaa !47
  %153 = load ptr, ptr %13, align 8, !tbaa !17
  %154 = getelementptr inbounds nuw %struct._image_box, ptr %153, i32 0, i32 5
  %155 = load i32, ptr %154, align 4, !tbaa !28
  %156 = sitofp i32 %155 to float
  %157 = fdiv reassoc nsz arcp contract afn float %152, %156
  store float %157, ptr %15, align 4, !tbaa !45
  %158 = load ptr, ptr %13, align 8, !tbaa !17
  %159 = getelementptr inbounds nuw %struct._image_box, ptr %158, i32 0, i32 11
  %160 = getelementptr inbounds nuw %struct._image_pos, ptr %159, i32 0, i32 2
  %161 = load float, ptr %160, align 8, !tbaa !47
  %162 = fptosi float %161 to i32
  %163 = load ptr, ptr %13, align 8, !tbaa !17
  %164 = getelementptr inbounds nuw %struct._image_box, ptr %163, i32 0, i32 5
  store i32 %162, ptr %164, align 4, !tbaa !28
  %165 = load ptr, ptr %13, align 8, !tbaa !17
  %166 = getelementptr inbounds nuw %struct._image_box, ptr %165, i32 0, i32 6
  %167 = load i32, ptr %166, align 8, !tbaa !27
  %168 = sitofp i32 %167 to float
  %169 = fadd reassoc nsz arcp contract afn float %168, 5.000000e-01
  %170 = load float, ptr %15, align 4, !tbaa !45
  %171 = fmul reassoc nsz arcp contract afn float %169, %170
  %172 = fptosi float %171 to i32
  %173 = load ptr, ptr %13, align 8, !tbaa !17
  %174 = getelementptr inbounds nuw %struct._image_box, ptr %173, i32 0, i32 6
  store i32 %172, ptr %174, align 8, !tbaa !27
  call void @llvm.lifetime.end.p0(i64 4, ptr %15) #5
  br label %175

175:                                              ; preds = %148, %34
  %176 = load ptr, ptr %13, align 8, !tbaa !17
  %177 = getelementptr inbounds nuw %struct._image_box, ptr %176, i32 0, i32 6
  %178 = load i32, ptr %177, align 8, !tbaa !27
  %179 = sitofp i32 %178 to float
  %180 = load ptr, ptr %13, align 8, !tbaa !17
  %181 = getelementptr inbounds nuw %struct._image_box, ptr %180, i32 0, i32 11
  %182 = getelementptr inbounds nuw %struct._image_pos, ptr %181, i32 0, i32 3
  %183 = load float, ptr %182, align 4, !tbaa !49
  %184 = fcmp reassoc nsz arcp contract afn ogt float %179, %183
  br i1 %184, label %185, label %212

185:                                              ; preds = %175
  call void @llvm.lifetime.start.p0(i64 4, ptr %16) #5
  %186 = load ptr, ptr %13, align 8, !tbaa !17
  %187 = getelementptr inbounds nuw %struct._image_box, ptr %186, i32 0, i32 11
  %188 = getelementptr inbounds nuw %struct._image_pos, ptr %187, i32 0, i32 3
  %189 = load float, ptr %188, align 4, !tbaa !49
  %190 = load ptr, ptr %13, align 8, !tbaa !17
  %191 = getelementptr inbounds nuw %struct._image_box, ptr %190, i32 0, i32 6
  %192 = load i32, ptr %191, align 8, !tbaa !27
  %193 = sitofp i32 %192 to float
  %194 = fdiv reassoc nsz arcp contract afn float %189, %193
  store float %194, ptr %16, align 4, !tbaa !45
  %195 = load ptr, ptr %13, align 8, !tbaa !17
  %196 = getelementptr inbounds nuw %struct._image_box, ptr %195, i32 0, i32 11
  %197 = getelementptr inbounds nuw %struct._image_pos, ptr %196, i32 0, i32 3
  %198 = load float, ptr %197, align 4, !tbaa !49
  %199 = fptosi float %198 to i32
  %200 = load ptr, ptr %13, align 8, !tbaa !17
  %201 = getelementptr inbounds nuw %struct._image_box, ptr %200, i32 0, i32 6
  store i32 %199, ptr %201, align 8, !tbaa !27
  %202 = load ptr, ptr %13, align 8, !tbaa !17
  %203 = getelementptr inbounds nuw %struct._image_box, ptr %202, i32 0, i32 5
  %204 = load i32, ptr %203, align 4, !tbaa !28
  %205 = sitofp i32 %204 to float
  %206 = fadd reassoc nsz arcp contract afn float %205, 5.000000e-01
  %207 = load float, ptr %16, align 4, !tbaa !45
  %208 = fmul reassoc nsz arcp contract afn float %206, %207
  %209 = fptosi float %208 to i32
  %210 = load ptr, ptr %13, align 8, !tbaa !17
  %211 = getelementptr inbounds nuw %struct._image_box, ptr %210, i32 0, i32 5
  store i32 %209, ptr %211, align 4, !tbaa !28
  call void @llvm.lifetime.end.p0(i64 4, ptr %16) #5
  br label %212

212:                                              ; preds = %185, %175
  call void @llvm.lifetime.end.p0(i64 16, ptr %14) #5
  call void @llvm.lifetime.end.p0(i64 8, ptr %13) #5
  ret void
}