; Function Attrs: nounwind uwtable
define void @dt_printing_setup_image(ptr noundef %0, i32 noundef %1, i32 noundef %2, i32 noundef %3, i32 noundef %4, i32 noundef %5) local_unnamed_addr #6 {
  %7 = alloca %struct._image_pos, align 4
  %8 = getelementptr inbounds nuw i8, ptr %0, i64 16
  %9 = sext i32 %1 to i64
  %10 = getelementptr inbounds [20 x %struct._image_box], ptr %8, i64 0, i64 %9
  %11 = load i32, ptr %10, align 8, !tbaa !87
  %.not = icmp eq i32 %11, %2
  br i1 %.not, label %16, label %12

12:                                               ; preds = %6
  %13 = getelementptr inbounds nuw i8, ptr %10, i64 28
  %14 = getelementptr inbounds nuw i8, ptr %10, i64 32
  %15 = tail call i32 @dt_image_get_final_size(i32 noundef %2, ptr noundef nonnull %13, ptr noundef nonnull %14) #10
  br label %16

16:                                               ; preds = %12, %6
  store i32 %2, ptr %10, align 8, !tbaa !87
  %17 = getelementptr inbounds nuw i8, ptr %10, i64 12
  store i32 %3, ptr %17, align 4, !tbaa !88
  %18 = getelementptr inbounds nuw i8, ptr %10, i64 16
  store i32 %4, ptr %18, align 8, !tbaa !89
  %19 = getelementptr inbounds nuw i8, ptr %10, i64 36
  store i32 %5, ptr %19, align 4, !tbaa !6
  %20 = getelementptr inbounds nuw i8, ptr %10, i64 40
  %21 = load float, ptr %20, align 8, !tbaa !75
  %22 = getelementptr inbounds nuw i8, ptr %0, i64 1936
  %23 = load float, ptr %22, align 8, !tbaa !81
  %24 = fmul reassoc nsz arcp contract afn float %23, %21
  %25 = getelementptr inbounds nuw i8, ptr %10, i64 72
  store float %24, ptr %25, align 8, !tbaa !90
  %26 = getelementptr inbounds nuw i8, ptr %10, i64 44
  %27 = load float, ptr %26, align 4, !tbaa !76
  %28 = getelementptr inbounds nuw i8, ptr %0, i64 1940
  %29 = load float, ptr %28, align 4, !tbaa !82
  %30 = fmul reassoc nsz arcp contract afn float %29, %27
  %31 = getelementptr inbounds nuw i8, ptr %10, i64 76
  store float %30, ptr %31, align 4, !tbaa !91
  %32 = getelementptr inbounds nuw i8, ptr %10, i64 48
  %33 = load float, ptr %32, align 8, !tbaa !77
  %34 = fmul reassoc nsz arcp contract afn float %33, %23
  %35 = getelementptr inbounds nuw i8, ptr %10, i64 80
  store float %34, ptr %35, align 8, !tbaa !92
  %36 = getelementptr inbounds nuw i8, ptr %10, i64 52
  %37 = load float, ptr %36, align 4, !tbaa !78
  %38 = fmul reassoc nsz arcp contract afn float %37, %29
  %39 = getelementptr inbounds nuw i8, ptr %10, i64 84
  store float %38, ptr %39, align 4, !tbaa !93
  call void @llvm.lifetime.start.p0(i64 16, ptr nonnull %7) #10
  call void @_align_pos(ptr noundef nonnull %25, i32 noundef %5, i32 noundef %3, i32 noundef %4, ptr noundef nonnull %7)
  %40 = load float, ptr %7, align 4, !tbaa !28
  store float %40, ptr %25, align 8, !tbaa !90
  %41 = getelementptr inbounds nuw i8, ptr %7, i64 4
  %42 = load float, ptr %41, align 4, !tbaa !29
  %43 = getelementptr inbounds nuw i8, ptr %7, i64 12
  %44 = load float, ptr %43, align 4, !tbaa !31
  %45 = fadd reassoc nsz arcp contract afn float %42, %44
  %46 = fsub reassoc nsz arcp contract afn float %29, %45
  store float %46, ptr %31, align 4, !tbaa !91
  %47 = getelementptr inbounds nuw i8, ptr %7, i64 8
  %48 = load float, ptr %47, align 4, !tbaa !30
  store float %48, ptr %35, align 8, !tbaa !92
  store float %44, ptr %39, align 4, !tbaa !93
  %49 = getelementptr inbounds nuw i8, ptr %10, i64 28
  %50 = load i32, ptr %49, align 4, !tbaa !94
  %51 = getelementptr inbounds nuw i8, ptr %10, i64 20
  store i32 %50, ptr %51, align 4, !tbaa !85
  %52 = getelementptr inbounds nuw i8, ptr %10, i64 32
  %53 = load i32, ptr %52, align 8, !tbaa !95
  %54 = getelementptr inbounds nuw i8, ptr %10, i64 24
  store i32 %53, ptr %54, align 8, !tbaa !86
  %55 = sitofp i32 %50 to float
  %56 = getelementptr inbounds nuw i8, ptr %10, i64 64
  %57 = load float, ptr %56, align 8, !tbaa !21
  %58 = fcmp reassoc nsz arcp contract afn olt float %57, %55
  br i1 %58, label %59, label %66

59:                                               ; preds = %16
  %60 = fptosi float %57 to i32
  store i32 %60, ptr %51, align 4, !tbaa !85
  %61 = sitofp i32 %53 to float
  %62 = fadd reassoc nsz arcp contract afn float %61, 5.000000e-01
  %63 = fmul reassoc nsz arcp contract afn float %57, %62
  %64 = fdiv reassoc nsz arcp contract afn float %63, %55
  %65 = fptosi float %64 to i32
  store i32 %65, ptr %54, align 8, !tbaa !86
  br label %66

66:                                               ; preds = %59, %16
  %67 = phi i32 [ %60, %59 ], [ %50, %16 ]
  %68 = phi i32 [ %65, %59 ], [ %53, %16 ]
  %69 = sitofp i32 %68 to float
  %70 = getelementptr inbounds nuw i8, ptr %10, i64 68
  %71 = load float, ptr %70, align 4, !tbaa !23
  %72 = fcmp reassoc nsz arcp contract afn olt float %71, %69
  br i1 %72, label %73, label %80

73:                                               ; preds = %66
  %74 = fptosi float %71 to i32
  store i32 %74, ptr %54, align 8, !tbaa !86
  %75 = sitofp i32 %67 to float
  %76 = fadd reassoc nsz arcp contract afn float %75, 5.000000e-01
  %77 = fmul reassoc nsz arcp contract afn float %76, %71
  %78 = fdiv reassoc nsz arcp contract afn float %77, %69
  %79 = fptosi float %78 to i32
  store i32 %79, ptr %51, align 4, !tbaa !85
  br label %80

80:                                               ; preds = %73, %66
  call void @llvm.lifetime.end.p0(i64 16, ptr nonnull %7) #10
  ret void
}